target datalayout = "e-m:e-p270:32:32-p271:32:32-p272:64:64-i64:64-i128:128-f80:128-n8:16:32:64-S128"
target triple = "x86_64-pc-linux-gnu"

@.str.1 = private unnamed_addr constant [5 x i8] c"fd.c\00", align 1
@.str.41 = private unnamed_addr constant [36 x i8] c"could not remove directory \22%s\22: %m\00", align 1
@__func__.unlink_if_exists_fname = private unnamed_addr constant [23 x i8] c"unlink_if_exists_fname\00", align 1

; Function Attrs: nounwind uwtable
define internal void @unlink_if_exists_fname(ptr noundef %0, i1 noundef zeroext %1, i32 noundef %2) #0 {
  %4 = alloca ptr, align 8
  %5 = alloca i8, align 1
  %6 = alloca i32, align 4
  store ptr %0, ptr %4, align 8
  %7 = zext i1 %1 to i8
  store i8 %7, ptr %5, align 1
  store i32 %2, ptr %6, align 4
  %8 = load i8, ptr %5, align 1, !range !4, !noundef !5
  %9 = trunc i8 %8 to i1
  br i1 %9, label %10, label %45

10:                                               ; preds = %3
  %11 = load ptr, ptr %4, align 8
  %12 = call i32 @rmdir(ptr noundef %11) #14
  %13 = icmp ne i32 %12, 0
  br i1 %13, label %14, label %44

14:                                               ; preds = %10
  %15 = call ptr @__errno_location() #15
  %16 = load i32, ptr %15, align 4
  %17 = icmp ne i32 %16, 2
  br i1 %17, label %18, label %44

18:                                               ; preds = %14
  br label %19

19:                                               ; preds = %18
  %20 = load i32, ptr %6, align 4
  %21 = call i1 @llvm.is.constant.i32(i32 %20)
  br i1 %21, label %22, label %28

22:                                               ; preds = %19
  %23 = load i32, ptr %6, align 4
  %24 = icmp sge i32 %23, 21
  br i1 %24, label %25, label %28

25:                                               ; preds = %22
  %26 = load i32, ptr %6, align 4
  %27 = call zeroext i1 @errstart_cold(i32 noundef %26, ptr noundef null) #16
  br i1 %27, label %31, label %35

28:                                               ; preds = %22, %19
  %29 = load i32, ptr %6, align 4
  %30 = call zeroext i1 @errstart(i32 noundef %29, ptr noundef null)
  br i1 %30, label %31, label %35

31:                                               ; preds = %28, %25
  %32 = call i32 @errcode_for_file_access()
  %33 = load ptr, ptr %4, align 8
  %34 = call i32 (ptr, ...) @errmsg(ptr noundef @.str.41, ptr noundef %33)
  call void @errfinish(ptr noundef @.str.1, i32 noundef 3802, ptr noundef @__func__.unlink_if_exists_fname)
  br label %35

35:                                               ; preds = %31, %28, %25
  %36 = load i32, ptr %6, align 4
  %37 = call i1 @llvm.is.constant.i32(i32 %36)
  br i1 %37, label %38, label %42

38:                                               ; preds = %35
  %39 = load i32, ptr %6, align 4
  %40 = icmp sge i32 %39, 21
  br i1 %40, label %41, label %42

41:                                               ; preds = %38
  unreachable

42:                                               ; preds = %38, %35
  br label %43

43:                                               ; preds = %42
  br label %44

44:                                               ; preds = %43, %14, %10
  br label %48

45:                                               ; preds = %3
  %46 = load ptr, ptr %4, align 8
  %47 = call zeroext i1 @PathNameDeleteTemporaryFile(ptr noundef %46, i1 noundef zeroext false)
  br label %48

48:                                               ; preds = %45, %44
  ret void
}