; Function Attrs: nounwind uwtable
define internal void @unlink_if_exists_fname(ptr noundef %0, i1 noundef zeroext %1, i32 noundef %2) #0 {
  br i1 %1, label %4, label %14

4:                                                ; preds = %3
  %5 = tail call i32 @rmdir(ptr noundef %0) #25
  %.not = icmp eq i32 %5, 0
  br i1 %.not, label %16, label %6

6:                                                ; preds = %4
  %7 = tail call ptr @__errno_location() #26
  %8 = load i32, ptr %7, align 4
  %.not12 = icmp eq i32 %8, 2
  br i1 %.not12, label %16, label %9

9:                                                ; preds = %6
  %10 = tail call zeroext i1 @errstart(i32 noundef %2, ptr noundef null) #25
  br i1 %10, label %11, label %16

11:                                               ; preds = %9
  %12 = tail call i32 @errcode_for_file_access() #25
  %13 = tail call i32 (ptr, ...) @errmsg(ptr noundef nonnull @.str.41, ptr noundef %0) #25
  tail call void @errfinish(ptr noundef nonnull @.str.1, i32 noundef 3802, ptr noundef nonnull @__func__.unlink_if_exists_fname) #25
  br label %16

14:                                               ; preds = %3
  %15 = tail call zeroext i1 @PathNameDeleteTemporaryFile(ptr noundef %0, i1 noundef zeroext false)
  br label %16

16:                                               ; preds = %9, %11, %4, %6, %14
  ret void
}